(lp0
(dp1
S'description'
p2
S'Hi,there.Thank you for viewing my profile.\\r I am a Mobile and Web programmer.\\r I have many experienced to develop apps and websites.\\r Dedicated and ability to finish given task having 5 years of experience in Android app,iPhone app,Application Server,Web Site,Web Design . I served different IT companies and individuals as team lead, software engineer and web-app developer.\\r I was involve in whole life cycle of Mobile project and web site . \\r I have ability to finish given task.'
p3
sS'name'
p4
S'Song Ryong'
p5
sS'id'
p6
S'~0136af9aff4910e140'
p7
sa.